Certificate:
    Data:
        Version: 3 (0x2)
        Serial Number: 1 (0x1)
    Signature Algorithm: sha256WithRSAEncryption
        Issuer: C=UA, ST=Chernivtsi, L=Chernivtsi, O=Skif, OU=IT dep, CN=VS
        Validity
            Not Before: Jul 22 10:16:09 2017 GMT
            Not After : Jul 22 10:16:09 2018 GMT
        Subject: C=NL, ST=Braband, O=Home, OU=IT dep, CN=Andrii Motsok/emailAddress=amotsok@gmail.com
        Subject Public Key Info:
            Public Key Algorithm: rsaEncryption
                Public-Key: (2048 bit)
                Modulus:
                    00:be:2e:bf:9d:a3:16:e7:c1:86:3a:97:b8:58:0c:
                    89:28:9f:e8:6c:10:36:ef:eb:23:0b:68:21:e3:27:
                    f2:02:88:b6:6e:74:5f:a7:de:6c:15:5e:86:49:7e:
                    14:5b:0d:95:80:9f:ce:fc:fd:79:a0:c5:21:2f:65:
                    9e:56:23:e2:6a:3e:5c:36:79:e2:16:dc:86:29:e4:
                    e3:03:22:00:39:f4:8c:f7:be:02:17:9b:04:dd:97:
                    54:bd:3d:0f:69:ac:7f:70:d0:ac:b3:70:9a:bd:0c:
                    38:76:7d:34:d3:0e:df:63:56:7d:c5:f8:c1:42:b6:
                    62:c0:1a:56:77:ae:3f:d2:1c:96:34:ba:a2:3c:8e:
                    d4:17:09:e1:4e:79:77:6a:e7:f6:6a:70:93:1d:9d:
                    ed:cc:56:76:a6:fc:ae:7a:69:07:f1:d0:be:ef:cf:
                    1f:78:54:87:42:db:64:4e:25:9c:79:7f:66:95:d2:
                    50:c9:d5:50:00:24:70:42:73:2b:20:45:b4:31:61:
                    89:cc:95:0b:fa:95:10:4a:62:c6:b0:ce:27:4c:bd:
                    7c:fd:68:3f:60:39:e9:f5:3c:79:cb:5f:60:e3:cc:
                    c8:e2:96:ea:9d:e4:61:a6:52:5e:74:62:5d:9b:cb:
                    09:c2:1e:1f:fc:32:7f:20:b4:13:7e:dc:46:41:eb:
                    cd:b1
                Exponent: 65537 (0x10001)
        X509v3 extensions:
            X509v3 Basic Constraints: 
                CA:FALSE
            Netscape Comment: 
                OpenSSL Generated Certificate
            X509v3 Subject Key Identifier: 
                38:CA:6A:D5:03:1F:73:C9:22:85:4B:9F:E6:35:DC:6F:08:5C:FB:F3
            X509v3 Authority Key Identifier: 
                keyid:9A:0E:5A:22:CD:D3:B9:CD:29:10:5D:46:11:D8:D7:D8:31:C4:B7:B0

    Signature Algorithm: sha256WithRSAEncryption
         6c:c7:00:1c:f4:a0:30:2b:2b:66:8c:48:84:bd:e7:2f:03:03:
         22:11:25:77:75:52:e3:4e:7f:62:a3:ce:c4:0f:88:fa:b2:8c:
         a3:13:cc:cd:eb:36:d6:22:e6:92:93:9c:78:4d:d5:23:92:e9:
         23:57:c1:ed:9e:5b:81:4f:7b:89:e2:88:6e:ea:20:d2:ea:d4:
         2a:40:d5:e1:7a:9a:a2:20:57:77:dc:f8:4e:c8:1b:88:c9:d1:
         58:3e:6b:e9:91:c4:65:40:46:fe:67:45:9a:9a:81:fc:c7:11:
         01:8a:3f:24:3c:cc:17:28:93:60:12:24:e2:17:6d:b9:60:7e:
         65:f0:ff:69:39:c4:a8:d1:3a:d7:99:72:1f:10:09:0a:e7:3d:
         07:15:ba:55:aa:27:f6:7b:0f:3d:d0:73:0f:a6:07:1a:36:a9:
         d2:60:6f:82:5a:a5:6c:10:37:f7:a2:b4:0d:08:9a:57:f4:ee:
         ae:92:3c:68:ca:42:76:b7:b6:e2:25:f4:b5:ca:dc:1c:65:c6:
         68:b1:af:59:fe:c5:ec:80:01:a5:6a:fa:04:6a:63:d5:cf:38:
         0f:82:4d:db:d2:d5:92:5a:55:9e:3c:31:9b:4a:09:2c:ae:aa:
         6b:56:bf:02:b0:da:33:23:aa:7a:40:bf:81:10:0d:39:76:dd:
         3e:59:57:a4
-----BEGIN CERTIFICATE-----
MIID0zCCArugAwIBAgIBATANBgkqhkiG9w0BAQsFADBkMQswCQYDVQQGEwJVQTET
MBEGA1UECAwKQ2hlcm5pdnRzaTETMBEGA1UEBwwKQ2hlcm5pdnRzaTENMAsGA1UE
CgwEU2tpZjEPMA0GA1UECwwGSVQgZGVwMQswCQYDVQQDDAJWUzAeFw0xNzA3MjIx
MDE2MDlaFw0xODA3MjIxMDE2MDlaMHkxCzAJBgNVBAYTAk5MMRAwDgYDVQQIDAdC
cmFiYW5kMQ0wCwYDVQQKDARIb21lMQ8wDQYDVQQLDAZJVCBkZXAxFjAUBgNVBAMM
DUFuZHJpaSBNb3Rzb2sxIDAeBgkqhkiG9w0BCQEWEWFtb3Rzb2tAZ21haWwuY29t
MIIBIjANBgkqhkiG9w0BAQEFAAOCAQ8AMIIBCgKCAQEAvi6/naMW58GGOpe4WAyJ
KJ/obBA27+sjC2gh4yfyAoi2bnRfp95sFV6GSX4UWw2VgJ/O/P15oMUhL2WeViPi
aj5cNnniFtyGKeTjAyIAOfSM974CF5sE3ZdUvT0Paax/cNCss3CavQw4dn000w7f
Y1Z9xfjBQrZiwBpWd64/0hyWNLqiPI7UFwnhTnl3auf2anCTHZ3tzFZ2pvyuemkH
8dC+788feFSHQttkTiWceX9mldJQydVQACRwQnMrIEW0MWGJzJUL+pUQSmLGsM4n
TL18/Wg/YDnp9Tx5y19g48zI4pbqneRhplJedGJdm8sJwh4f/DJ/ILQTftxGQevN
sQIDAQABo3sweTAJBgNVHRMEAjAAMCwGCWCGSAGG+EIBDQQfFh1PcGVuU1NMIEdl
bmVyYXRlZCBDZXJ0aWZpY2F0ZTAdBgNVHQ4EFgQUOMpq1QMfc8kihUuf5jXcbwhc
+/MwHwYDVR0jBBgwFoAUmg5aIs3Tuc0pEF1GEdjX2DHEt7AwDQYJKoZIhvcNAQEL
BQADggEBAGzHABz0oDArK2aMSIS95y8DAyIRJXd1UuNOf2KjzsQPiPqyjKMTzM3r
NtYi5pKTnHhN1SOS6SNXwe2eW4FPe4niiG7qINLq1CpA1eF6mqIgV3fc+E7IG4jJ
0Vg+a+mRxGVARv5nRZqagfzHEQGKPyQ8zBcok2ASJOIXbblgfmXw/2k5xKjROteZ
ch8QCQrnPQcVulWqJ/Z7Dz3Qcw+mBxo2qdJgb4JapWwQN/eitA0Imlf07q6SPGjK
Qna3tuIl9LXK3Bxlxmixr1n+xeyAAaVq+gRqY9XPOA+CTdvS1ZJaVZ48MZtKCSyu
qmtWvwKw2jMjqnpAv4EQDTl23T5ZV6Q=
-----END CERTIFICATE-----
