Certificate:
    Data:
        Version: 3 (0x2)
        Serial Number: 2 (0x2)
    Signature Algorithm: sha256WithRSAEncryption
        Issuer: C=UA, ST=Chernivtsi, L=Chernivtsi, O=Skif, OU=IT dep, CN=VS
        Validity
            Not Before: Jul 22 10:20:20 2017 GMT
            Not After : Jul 22 10:20:20 2018 GMT
        Subject: C=NL, ST=Braband, O=Home, OU=IT dep, CN=Andrii Motsok/emailAddress=amotsok@gmail.com
        Subject Public Key Info:
            Public Key Algorithm: rsaEncryption
                Public-Key: (2048 bit)
                Modulus:
                    00:be:2e:bf:9d:a3:16:e7:c1:86:3a:97:b8:58:0c:
                    89:28:9f:e8:6c:10:36:ef:eb:23:0b:68:21:e3:27:
                    f2:02:88:b6:6e:74:5f:a7:de:6c:15:5e:86:49:7e:
                    14:5b:0d:95:80:9f:ce:fc:fd:79:a0:c5:21:2f:65:
                    9e:56:23:e2:6a:3e:5c:36:79:e2:16:dc:86:29:e4:
                    e3:03:22:00:39:f4:8c:f7:be:02:17:9b:04:dd:97:
                    54:bd:3d:0f:69:ac:7f:70:d0:ac:b3:70:9a:bd:0c:
                    38:76:7d:34:d3:0e:df:63:56:7d:c5:f8:c1:42:b6:
                    62:c0:1a:56:77:ae:3f:d2:1c:96:34:ba:a2:3c:8e:
                    d4:17:09:e1:4e:79:77:6a:e7:f6:6a:70:93:1d:9d:
                    ed:cc:56:76:a6:fc:ae:7a:69:07:f1:d0:be:ef:cf:
                    1f:78:54:87:42:db:64:4e:25:9c:79:7f:66:95:d2:
                    50:c9:d5:50:00:24:70:42:73:2b:20:45:b4:31:61:
                    89:cc:95:0b:fa:95:10:4a:62:c6:b0:ce:27:4c:bd:
                    7c:fd:68:3f:60:39:e9:f5:3c:79:cb:5f:60:e3:cc:
                    c8:e2:96:ea:9d:e4:61:a6:52:5e:74:62:5d:9b:cb:
                    09:c2:1e:1f:fc:32:7f:20:b4:13:7e:dc:46:41:eb:
                    cd:b1
                Exponent: 65537 (0x10001)
        X509v3 extensions:
            X509v3 Basic Constraints: 
                CA:FALSE
            Netscape Comment: 
                OpenSSL Generated Certificate
            X509v3 Subject Key Identifier: 
                38:CA:6A:D5:03:1F:73:C9:22:85:4B:9F:E6:35:DC:6F:08:5C:FB:F3
            X509v3 Authority Key Identifier: 
                keyid:9A:0E:5A:22:CD:D3:B9:CD:29:10:5D:46:11:D8:D7:D8:31:C4:B7:B0

    Signature Algorithm: sha256WithRSAEncryption
         56:b6:d5:4a:c9:52:d2:8f:dc:2b:e9:45:71:f2:a9:10:07:97:
         57:44:e8:bc:ab:5d:f8:a0:1b:30:47:b0:49:78:a3:3e:fb:36:
         03:b9:c0:bd:35:de:49:fa:c2:bc:9b:5c:18:da:93:46:a3:5a:
         7e:ea:d9:f9:66:04:e8:6c:49:86:0c:c3:b2:36:51:5c:76:ef:
         64:ec:5a:7e:44:70:3d:58:b4:3c:47:d8:3c:10:ea:80:5d:7e:
         dc:71:a4:67:53:ae:a7:17:4a:b9:33:d2:f2:1c:95:5a:b9:cc:
         5c:ec:35:aa:8e:b2:df:67:0d:81:97:79:4d:47:99:54:78:50:
         24:8f:dd:11:5f:9b:cb:99:5f:c7:ae:d6:80:b4:ca:a0:0e:97:
         b5:ac:65:d6:ea:7a:33:33:a3:5a:d7:20:cd:38:13:a7:dd:cf:
         00:46:7e:76:7e:f0:2d:f1:dc:7c:78:55:c1:c4:61:5d:ee:68:
         33:d5:9a:5d:af:49:7f:ad:78:43:c7:f4:c5:9e:c9:45:24:f1:
         28:00:d7:bf:db:a3:d9:aa:34:74:b1:30:06:ae:8d:16:89:a7:
         1b:f2:05:30:1c:96:b0:79:18:e7:0a:1e:5f:7d:3f:3d:26:d5:
         3c:64:a1:b4:47:36:77:2b:6e:c3:44:bc:64:1d:9c:c9:4e:8a:
         01:9a:ee:2e
-----BEGIN CERTIFICATE-----
MIID0zCCArugAwIBAgIBAjANBgkqhkiG9w0BAQsFADBkMQswCQYDVQQGEwJVQTET
MBEGA1UECAwKQ2hlcm5pdnRzaTETMBEGA1UEBwwKQ2hlcm5pdnRzaTENMAsGA1UE
CgwEU2tpZjEPMA0GA1UECwwGSVQgZGVwMQswCQYDVQQDDAJWUzAeFw0xNzA3MjIx
MDIwMjBaFw0xODA3MjIxMDIwMjBaMHkxCzAJBgNVBAYTAk5MMRAwDgYDVQQIDAdC
cmFiYW5kMQ0wCwYDVQQKDARIb21lMQ8wDQYDVQQLDAZJVCBkZXAxFjAUBgNVBAMM
DUFuZHJpaSBNb3Rzb2sxIDAeBgkqhkiG9w0BCQEWEWFtb3Rzb2tAZ21haWwuY29t
MIIBIjANBgkqhkiG9w0BAQEFAAOCAQ8AMIIBCgKCAQEAvi6/naMW58GGOpe4WAyJ
KJ/obBA27+sjC2gh4yfyAoi2bnRfp95sFV6GSX4UWw2VgJ/O/P15oMUhL2WeViPi
aj5cNnniFtyGKeTjAyIAOfSM974CF5sE3ZdUvT0Paax/cNCss3CavQw4dn000w7f
Y1Z9xfjBQrZiwBpWd64/0hyWNLqiPI7UFwnhTnl3auf2anCTHZ3tzFZ2pvyuemkH
8dC+788feFSHQttkTiWceX9mldJQydVQACRwQnMrIEW0MWGJzJUL+pUQSmLGsM4n
TL18/Wg/YDnp9Tx5y19g48zI4pbqneRhplJedGJdm8sJwh4f/DJ/ILQTftxGQevN
sQIDAQABo3sweTAJBgNVHRMEAjAAMCwGCWCGSAGG+EIBDQQfFh1PcGVuU1NMIEdl
bmVyYXRlZCBDZXJ0aWZpY2F0ZTAdBgNVHQ4EFgQUOMpq1QMfc8kihUuf5jXcbwhc
+/MwHwYDVR0jBBgwFoAUmg5aIs3Tuc0pEF1GEdjX2DHEt7AwDQYJKoZIhvcNAQEL
BQADggEBAFa21UrJUtKP3CvpRXHyqRAHl1dE6LyrXfigGzBHsEl4oz77NgO5wL01
3kn6wrybXBjak0ajWn7q2flmBOhsSYYMw7I2UVx272TsWn5EcD1YtDxH2DwQ6oBd
ftxxpGdTrqcXSrkz0vIclVq5zFzsNaqOst9nDYGXeU1HmVR4UCSP3RFfm8uZX8eu
1oC0yqAOl7WsZdbqejMzo1rXIM04E6fdzwBGfnZ+8C3x3Hx4VcHEYV3uaDPVml2v
SX+teEPH9MWeyUUk8SgA17/bo9mqNHSxMAaujRaJpxvyBTAclrB5GOcKHl99Pz0m
1TxkobRHNncrbsNEvGQdnMlOigGa7i4=
-----END CERTIFICATE-----
